; Function Attrs: mustprogress uwtable
define noundef zeroext i1 @_ZNK32pxrInternal_v0_24__pxrReserved__8SdfLayer15QueryTimeSampleERKNS_7SdfPathEdPNS_20SdfAbstractDataValueE(ptr noundef nonnull readonly align 8 captures(none) dereferenceable(557) %0, ptr noundef nonnull align 4 dereferenceable(8) %1, double noundef %2, ptr noundef %3) local_unnamed_addr #3 align 2 {
  %5 = alloca %"class.pxrInternal_v0_24__pxrReserved__::TfCallContext", align 8
  %6 = getelementptr inbounds nuw i8, ptr %0, i64 136
  call void @llvm.lifetime.start.p0(i64 40, ptr nonnull %5)
  %7 = load ptr, ptr %6, align 8
  %.not.i = icmp eq ptr %7, null
  br i1 %.not.i, label %8, label %_ZNK32pxrInternal_v0_24__pxrReserved__8TfRefPtrINS_15SdfAbstractDataEEptEv.exit

8:                                                ; preds = %4
  store ptr @.str.146, ptr %5, align 8
  %9 = getelementptr inbounds nuw i8, ptr %5, i64 8
  store ptr @__func__._ZNK32pxrInternal_v0_24__pxrReserved__8TfRefPtrINS_10Tf_RemnantEEptEv, ptr %9, align 8
  %10 = getelementptr inbounds nuw i8, ptr %5, i64 16
  store i64 936, ptr %10, align 8
  %11 = getelementptr inbounds nuw i8, ptr %5, i64 24
  store ptr @__PRETTY_FUNCTION__._ZNK32pxrInternal_v0_24__pxrReserved__8TfRefPtrINS_15SdfAbstractDataEEptEv, ptr %11, align 8
  %12 = getelementptr inbounds nuw i8, ptr %5, i64 32
  store i8 0, ptr %12, align 8
  call void @_ZN32pxrInternal_v0_24__pxrReserved__40Tf_PostNullSmartPtrDereferenceFatalErrorERKNS_13TfCallContextEPKc(ptr noundef nonnull align 8 dereferenceable(33) %5, ptr noundef nonnull @_ZTSN32pxrInternal_v0_24__pxrReserved__8TfRefPtrINS_15SdfAbstractDataEEE) #31
  unreachable

_ZNK32pxrInternal_v0_24__pxrReserved__8TfRefPtrINS_15SdfAbstractDataEEptEv.exit: ; preds = %4
  call void @llvm.lifetime.end.p0(i64 40, ptr nonnull %5)
  %13 = load ptr, ptr %7, align 8
  %14 = getelementptr inbounds nuw i8, ptr %13, i64 288
  %15 = load ptr, ptr %14, align 8
  %16 = tail call noundef zeroext i1 %15(ptr noundef nonnull align 8 dereferenceable(24) %7, ptr noundef nonnull align 4 dereferenceable(8) %1, double noundef %2, ptr noundef %3)
  ret i1 %16
}